; Function Attrs: mustprogress nofree norecurse nosync nounwind willreturn memory(argmem: readwrite) uwtable
define void @png_push_restore_buffer(ptr noalias nocapture noundef %0, ptr noundef %1, i64 noundef %2) local_unnamed_addr #1 {
  %4 = getelementptr inbounds i8, ptr %0, i64 832
  store ptr %1, ptr %4, align 8
  %5 = getelementptr inbounds i8, ptr %0, i64 872
  store i64 %2, ptr %5, align 8
  %6 = getelementptr inbounds i8, ptr %0, i64 848
  %7 = load i64, ptr %6, align 8
  %8 = add i64 %7, %2
  %9 = getelementptr inbounds i8, ptr %0, i64 864
  store i64 %8, ptr %9, align 8
  %10 = getelementptr inbounds i8, ptr %0, i64 824
  store ptr %1, ptr %10, align 8
  ret void
}